target datalayout = "e-m:e-p270:32:32-p271:32:32-p272:64:64-i64:64-i128:128-f80:128-n8:16:32:64-S128"
target triple = "x86_64-unknown-linux-gnu"

%"class.absl::lts_20230802::StatusOr" = type { %"class.absl::lts_20230802::internal_statusor::StatusOrData" }
%"class.absl::lts_20230802::internal_statusor::StatusOrData" = type { %union.anon, %union.anon.0 }
%union.anon = type { %"class.absl::lts_20230802::Status" }
%"class.absl::lts_20230802::Status" = type { i64 }
%union.anon.0 = type { %"class.std::__cxx11::basic_string" }
%"class.std::__cxx11::basic_string" = type { %"struct.std::__cxx11::basic_string<char>::_Alloc_hider", i64, %union.anon.1 }
%"struct.std::__cxx11::basic_string<char>::_Alloc_hider" = type { ptr }
%union.anon.1 = type { i64, [8 x i8] }
%"struct.absl::lts_20230802::status_internal::StatusRep" = type { %"struct.std::atomic", i32, %"class.std::__cxx11::basic_string", %"class.std::unique_ptr" }
%"struct.std::atomic" = type { %"struct.std::__atomic_base" }
%"struct.std::__atomic_base" = type { i32 }
%"class.std::unique_ptr" = type { %"struct.std::__uniq_ptr_data" }
%"struct.std::__uniq_ptr_data" = type { %"class.std::__uniq_ptr_impl" }
%"class.std::__uniq_ptr_impl" = type { %"class.std::tuple" }
%"class.std::tuple" = type { %"struct.std::_Tuple_impl" }
%"struct.std::_Tuple_impl" = type { %"struct.std::_Head_base.3" }
%"struct.std::_Head_base.3" = type { ptr }

; Function Attrs: mustprogress nounwind uwtable
define linkonce_odr noundef ptr @_ZN4absl12lts_202308026Status12RepToPointerEm(i64 noundef %rep) #5 comdat align 2 {
entry:
  %rep.addr = alloca i64, align 8
  store i64 %rep, ptr %rep.addr, align 8
  %0 = load i64, ptr %rep.addr, align 8
  %sub = sub i64 %0, 1
  %1 = inttoptr i64 %sub to ptr
  ret ptr %1
}

; Function Attrs: mustprogress nounwind uwtable
define linkonce_odr noundef zeroext i1 @_ZN4absl12lts_202308026Status9IsInlinedEm(i64 noundef %rep) #5 comdat align 2 {
entry:
  %rep.addr = alloca i64, align 8
  store i64 %rep, ptr %rep.addr, align 8
  %0 = load i64, ptr %rep.addr, align 8
  %and = and i64 %0, 1
  %cmp = icmp eq i64 %and, 0
  ret i1 %cmp
}

; Function Attrs: mustprogress nounwind uwtable
define linkonce_odr noundef i64 @_ZN4absl12lts_202308026Status16CodeToInlinedRepENS0_10StatusCodeE(i32 noundef %code) #5 comdat align 2 {
entry:
  %code.addr = alloca i32, align 4
  store i32 %code, ptr %code.addr, align 4
  %0 = load i32, ptr %code.addr, align 4
  %conv = sext i32 %0 to i64
  %shl = shl i64 %conv, 2
  ret i64 %shl
}

; Function Attrs: mustprogress uwtable
define linkonce_odr void @_ZN4absl12lts_202308026Status3RefEm(i64 noundef %rep) #4 comdat align 2 {
entry:
  %this.addr.i = alloca ptr, align 8
  %__i.addr.i = alloca i32, align 4
  %__m.addr.i = alloca i32, align 4
  %.atomictmp.i = alloca i32, align 4
  %atomic-temp.i = alloca i32, align 4
  %rep.addr = alloca i64, align 8
  store i64 %rep, ptr %rep.addr, align 8
  %0 = load i64, ptr %rep.addr, align 8
  %call = call noundef zeroext i1 @_ZN4absl12lts_202308026Status9IsInlinedEm(i64 noundef %0)
  br i1 %call, label %if.end, label %if.then

if.then:                                          ; preds = %entry
  %1 = load i64, ptr %rep.addr, align 8
  %call1 = call noundef ptr @_ZN4absl12lts_202308026Status12RepToPointerEm(i64 noundef %1)
  %ref = getelementptr inbounds %"struct.absl::lts_20230802::status_internal::StatusRep", ptr %call1, i32 0, i32 0
  store ptr %ref, ptr %this.addr.i, align 8
  store i32 1, ptr %__i.addr.i, align 4
  store i32 0, ptr %__m.addr.i, align 4
  %this1.i = load ptr, ptr %this.addr.i, align 8
  %2 = load i32, ptr %__m.addr.i, align 4
  %3 = load i32, ptr %__i.addr.i, align 4
  store i32 %3, ptr %.atomictmp.i, align 4
  switch i32 %2, label %monotonic.i [
    i32 1, label %acquire.i
    i32 2, label %acquire.i
    i32 3, label %release.i
    i32 4, label %acqrel.i
    i32 5, label %seqcst.i
  ]

monotonic.i:                                      ; preds = %if.then
  %4 = load i32, ptr %.atomictmp.i, align 4
  %5 = atomicrmw add ptr %this1.i, i32 %4 monotonic, align 4
  store i32 %5, ptr %atomic-temp.i, align 4
  br label %_ZNSt13__atomic_baseIiE9fetch_addEiSt12memory_order.exit

acquire.i:                                        ; preds = %if.then, %if.then
  %6 = load i32, ptr %.atomictmp.i, align 4
  %7 = atomicrmw add ptr %this1.i, i32 %6 acquire, align 4
  store i32 %7, ptr %atomic-temp.i, align 4
  br label %_ZNSt13__atomic_baseIiE9fetch_addEiSt12memory_order.exit

release.i:                                        ; preds = %if.then
  %8 = load i32, ptr %.atomictmp.i, align 4
  %9 = atomicrmw add ptr %this1.i, i32 %8 release, align 4
  store i32 %9, ptr %atomic-temp.i, align 4
  br label %_ZNSt13__atomic_baseIiE9fetch_addEiSt12memory_order.exit

acqrel.i:                                         ; preds = %if.then
  %10 = load i32, ptr %.atomictmp.i, align 4
  %11 = atomicrmw add ptr %this1.i, i32 %10 acq_rel, align 4
  store i32 %11, ptr %atomic-temp.i, align 4
  br label %_ZNSt13__atomic_baseIiE9fetch_addEiSt12memory_order.exit

seqcst.i:                                         ; preds = %if.then
  %12 = load i32, ptr %.atomictmp.i, align 4
  %13 = atomicrmw add ptr %this1.i, i32 %12 seq_cst, align 4
  store i32 %13, ptr %atomic-temp.i, align 4
  br label %_ZNSt13__atomic_baseIiE9fetch_addEiSt12memory_order.exit

_ZNSt13__atomic_baseIiE9fetch_addEiSt12memory_order.exit: ; preds = %seqcst.i, %acqrel.i, %release.i, %acquire.i, %monotonic.i
  br label %if.end

if.end:                                           ; preds = %_ZNSt13__atomic_baseIiE9fetch_addEiSt12memory_order.exit, %entry
  ret void
}

; Function Attrs: mustprogress uwtable
define linkonce_odr noundef zeroext i1 @_ZNK4absl12lts_202308026Status2okEv(ptr noundef nonnull align 8 dereferenceable(8) %this) #4 comdat align 2 {
entry:
  %this.addr = alloca ptr, align 8
  store ptr %this, ptr %this.addr, align 8
  %this1 = load ptr, ptr %this.addr, align 8
  %rep_ = getelementptr inbounds %"class.absl::lts_20230802::Status", ptr %this1, i32 0, i32 0
  %0 = load i64, ptr %rep_, align 8
  %call = call noundef i64 @_ZN4absl12lts_202308026Status16CodeToInlinedRepENS0_10StatusCodeE(i32 noundef 0)
  %cmp = icmp eq i64 %0, %call
  ret i1 %cmp
}

; Function Attrs: mustprogress uwtable
define linkonce_odr void @_ZN4absl12lts_202308026StatusC2ERKS1_(ptr noundef nonnull align 8 dereferenceable(8) %this, ptr noundef nonnull align 8 dereferenceable(8) %x) unnamed_addr #4 comdat align 2 {
entry:
  %this.addr = alloca ptr, align 8
  %x.addr = alloca ptr, align 8
  store ptr %this, ptr %this.addr, align 8
  store ptr %x, ptr %x.addr, align 8
  %this1 = load ptr, ptr %this.addr, align 8
  %rep_ = getelementptr inbounds %"class.absl::lts_20230802::Status", ptr %this1, i32 0, i32 0
  %0 = load ptr, ptr %x.addr, align 8
  %rep_2 = getelementptr inbounds %"class.absl::lts_20230802::Status", ptr %0, i32 0, i32 0
  %1 = load i64, ptr %rep_2, align 8
  store i64 %1, ptr %rep_, align 8
  %rep_3 = getelementptr inbounds %"class.absl::lts_20230802::Status", ptr %this1, i32 0, i32 0
  %2 = load i64, ptr %rep_3, align 8
  call void @_ZN4absl12lts_202308026Status3RefEm(i64 noundef %2)
  ret void
}

; Function Attrs: mustprogress uwtable
define linkonce_odr noundef zeroext i1 @_ZNK4absl12lts_202308028StatusOrINSt7__cxx1112basic_stringIcSt11char_traitsIcESaIcEEEE2okEv(ptr noundef nonnull align 8 dereferenceable(40) %this) #4 comdat align 2 {
entry:
  %this.addr = alloca ptr, align 8
  store ptr %this, ptr %this.addr, align 8
  %this1 = load ptr, ptr %this.addr, align 8
  %0 = getelementptr inbounds %"class.absl::lts_20230802::internal_statusor::StatusOrData", ptr %this1, i32 0, i32 0
  %call = call noundef zeroext i1 @_ZNK4absl12lts_202308026Status2okEv(ptr noundef nonnull align 8 dereferenceable(8) %0)
  ret i1 %call
}

; Function Attrs: mustprogress uwtable
define linkonce_odr noundef nonnull align 8 dereferenceable(32) ptr @_ZNR4absl12lts_202308028StatusOrINSt7__cxx1112basic_stringIcSt11char_traitsIcESaIcEEEE5valueEv(ptr noundef nonnull align 8 dereferenceable(40) %this) #4 comdat align 2 personality ptr @__gxx_personality_v0 {
entry:
  %this.addr = alloca ptr, align 8
  %agg.tmp = alloca %"class.absl::lts_20230802::Status", align 8
  %exn.slot = alloca ptr, align 8
  %ehselector.slot = alloca i32, align 4
  store ptr %this, ptr %this.addr, align 8
  %this1 = load ptr, ptr %this.addr, align 8
  %call = call noundef zeroext i1 @_ZNK4absl12lts_202308028StatusOrINSt7__cxx1112basic_stringIcSt11char_traitsIcESaIcEEEE2okEv(ptr noundef nonnull align 8 dereferenceable(40) %this1)
  br i1 %call, label %if.end, label %if.then

if.then:                                          ; preds = %entry
  %0 = getelementptr inbounds %"class.absl::lts_20230802::internal_statusor::StatusOrData", ptr %this1, i32 0, i32 0
  call void @_ZN4absl12lts_202308026StatusC2ERKS1_(ptr noundef nonnull align 8 dereferenceable(8) %agg.tmp, ptr noundef nonnull align 8 dereferenceable(8) %0)
  invoke void @_ZN4absl12lts_2023080217internal_statusor22ThrowBadStatusOrAccessENS0_6StatusE(ptr noundef %agg.tmp) #10
          to label %invoke.cont unwind label %lpad

invoke.cont:                                      ; preds = %if.then
  unreachable

lpad:                                             ; preds = %if.then
  %1 = landingpad { ptr, i32 }
          cleanup
  %2 = extractvalue { ptr, i32 } %1, 0
  store ptr %2, ptr %exn.slot, align 8
  %3 = extractvalue { ptr, i32 } %1, 1
  store i32 %3, ptr %ehselector.slot, align 4
  call void @_ZN4absl12lts_202308026StatusD2Ev(ptr noundef nonnull align 8 dereferenceable(8) %agg.tmp) #3
  br label %eh.resume

if.end:                                           ; preds = %entry
  %4 = getelementptr inbounds %"class.absl::lts_20230802::internal_statusor::StatusOrData", ptr %this1, i32 0, i32 1
  ret ptr %4

eh.resume:                                        ; preds = %lpad
  %exn = load ptr, ptr %exn.slot, align 8
  %sel = load i32, ptr %ehselector.slot, align 4
  %lpad.val = insertvalue { ptr, i32 } poison, ptr %exn, 0
  %lpad.val2 = insertvalue { ptr, i32 } %lpad.val, i32 %sel, 1
  resume { ptr, i32 } %lpad.val2
}

; Function Attrs: mustprogress uwtable
define noundef zeroext i1 @_Z23set_matching_sd_unix_fdP15grpc_tcp_serverPK21grpc_resolved_addressii(ptr noundef %s, ptr noundef %addr, i32 noundef %fd_start, i32 noundef %n) #4 personality ptr @__gxx_personality_v0 {
entry:
  %retval = alloca i1, align 1
  %s.addr = alloca ptr, align 8
  %addr.addr = alloca ptr, align 8
  %fd_start.addr = alloca i32, align 4
  %n.addr = alloca i32, align 4
  %addr_name = alloca %"class.absl::lts_20230802::StatusOr", align 8
  %i = alloca i32, align 4
  %exn.slot = alloca ptr, align 8
  %ehselector.slot = alloca i32, align 4
  %cleanup.dest.slot = alloca i32, align 4
  store ptr %s, ptr %s.addr, align 8
  store ptr %addr, ptr %addr.addr, align 8
  store i32 %fd_start, ptr %fd_start.addr, align 4
  store i32 %n, ptr %n.addr, align 4
  %0 = load ptr, ptr %addr.addr, align 8
  call void @_Z23grpc_sockaddr_to_stringB5cxx11PK21grpc_resolved_addressb(ptr sret(%"class.absl::lts_20230802::StatusOr") align 8 %addr_name, ptr noundef %0, i1 noundef zeroext true)
  %1 = load i32, ptr %fd_start.addr, align 4
  store i32 %1, ptr %i, align 4
  br label %for.cond

for.cond:                                         ; preds = %for.inc, %entry
  %2 = load i32, ptr %i, align 4
  %3 = load i32, ptr %fd_start.addr, align 4
  %4 = load i32, ptr %n.addr, align 4
  %add = add nsw i32 %3, %4
  %cmp = icmp slt i32 %2, %add
  br i1 %cmp, label %for.body, label %for.end

for.body:                                         ; preds = %for.cond
  %5 = load i32, ptr %i, align 4
  %call = invoke noundef nonnull align 8 dereferenceable(32) ptr @_ZNR4absl12lts_202308028StatusOrINSt7__cxx1112basic_stringIcSt11char_traitsIcESaIcEEEE5valueEv(ptr noundef nonnull align 8 dereferenceable(40) %addr_name)
          to label %invoke.cont unwind label %lpad

invoke.cont:                                      ; preds = %for.body
  %call1 = call noundef ptr @_ZNKSt7__cxx1112basic_stringIcSt11char_traitsIcESaIcEE5c_strEv(ptr noundef nonnull align 8 dereferenceable(32) %call) #3
  %call3 = invoke i32 @sd_is_socket_unix(i32 noundef %5, i32 noundef 1, i32 noundef 1, ptr noundef %call1, i64 noundef 0)
          to label %invoke.cont2 unwind label %lpad

invoke.cont2:                                     ; preds = %invoke.cont
  %tobool = icmp ne i32 %call3, 0
  br i1 %tobool, label %if.then, label %if.end

if.then:                                          ; preds = %invoke.cont2
  %6 = load ptr, ptr %s.addr, align 8
  %7 = load i32, ptr %i, align 4
  invoke void @_Z36grpc_tcp_server_set_pre_allocated_fdP15grpc_tcp_serveri(ptr noundef %6, i32 noundef %7)
          to label %invoke.cont4 unwind label %lpad

invoke.cont4:                                     ; preds = %if.then
  store i1 true, ptr %retval, align 1
  store i32 1, ptr %cleanup.dest.slot, align 4
  br label %cleanup

lpad:                                             ; preds = %if.then, %invoke.cont, %for.body
  %8 = landingpad { ptr, i32 }
          cleanup
  %9 = extractvalue { ptr, i32 } %8, 0
  store ptr %9, ptr %exn.slot, align 8
  %10 = extractvalue { ptr, i32 } %8, 1
  store i32 %10, ptr %ehselector.slot, align 4
  call void @_ZN4absl12lts_202308028StatusOrINSt7__cxx1112basic_stringIcSt11char_traitsIcESaIcEEEED2Ev(ptr noundef nonnull align 8 dereferenceable(40) %addr_name) #3
  br label %eh.resume

if.end:                                           ; preds = %invoke.cont2
  br label %for.inc

for.inc:                                          ; preds = %if.end
  %11 = load i32, ptr %i, align 4
  %inc = add nsw i32 %11, 1
  store i32 %inc, ptr %i, align 4
  br label %for.cond, !llvm.loop !4

for.end:                                          ; preds = %for.cond
  store i1 false, ptr %retval, align 1
  store i32 1, ptr %cleanup.dest.slot, align 4
  br label %cleanup

cleanup:                                          ; preds = %for.end, %invoke.cont4
  call void @_ZN4absl12lts_202308028StatusOrINSt7__cxx1112basic_stringIcSt11char_traitsIcESaIcEEEED2Ev(ptr noundef nonnull align 8 dereferenceable(40) %addr_name) #3
  %12 = load i1, ptr %retval, align 1
  ret i1 %12

eh.resume:                                        ; preds = %lpad
  %exn = load ptr, ptr %exn.slot, align 8
  %sel = load i32, ptr %ehselector.slot, align 4
  %lpad.val = insertvalue { ptr, i32 } poison, ptr %exn, 0
  %lpad.val5 = insertvalue { ptr, i32 } %lpad.val, i32 %sel, 1
  resume { ptr, i32 } %lpad.val5
}