; Function Attrs: mustprogress uwtable
define noundef zeroext i1 @_Z23set_matching_sd_unix_fdP15grpc_tcp_serverPK21grpc_resolved_addressii(ptr noundef %s, ptr noundef %addr, i32 noundef %fd_start, i32 noundef %n) local_unnamed_addr #3 personality ptr @__gxx_personality_v0 {
entry:
  %agg.tmp.i = alloca %"class.absl::lts_20230802::Status", align 8
  %addr_name = alloca %"class.absl::lts_20230802::StatusOr", align 8
  call void @_Z23grpc_sockaddr_to_stringB5cxx11PK21grpc_resolved_addressb(ptr nonnull sret(%"class.absl::lts_20230802::StatusOr") align 8 %addr_name, ptr noundef %addr, i1 noundef zeroext true)
  %add = add nsw i32 %n, %fd_start
  %cmp17 = icmp sgt i32 %n, 0
  br i1 %cmp17, label %for.body.lr.ph, label %cleanup

for.body.lr.ph:                                   ; preds = %entry
  %0 = getelementptr inbounds i8, ptr %addr_name, i64 8
  br label %for.body

for.body:                                         ; preds = %for.body.lr.ph, %for.inc
  %i.018 = phi i32 [ %fd_start, %for.body.lr.ph ], [ %inc, %for.inc ]
  call void @llvm.lifetime.start.p0(i64 8, ptr nonnull %agg.tmp.i)
  %1 = load i64, ptr %addr_name, align 8
  %cmp.i.i.i = icmp eq i64 %1, 0
  br i1 %cmp.i.i.i, label %invoke.cont, label %if.then.i

if.then.i:                                        ; preds = %for.body
  store i64 %1, ptr %agg.tmp.i, align 8
  %and.i.i.i.i = and i64 %1, 1
  %cmp.i.i.i.i = icmp eq i64 %and.i.i.i.i, 0
  br i1 %cmp.i.i.i.i, label %_ZN4absl12lts_202308026StatusC2ERKS1_.exit.i, label %if.then.i.i.i

if.then.i.i.i:                                    ; preds = %if.then.i
  %sub.i.i.i.i = add nsw i64 %1, -1
  %2 = inttoptr i64 %sub.i.i.i.i to ptr
  %3 = atomicrmw add ptr %2, i32 1 monotonic, align 4
  br label %_ZN4absl12lts_202308026StatusC2ERKS1_.exit.i

_ZN4absl12lts_202308026StatusC2ERKS1_.exit.i:     ; preds = %if.then.i.i.i, %if.then.i
  invoke void @_ZN4absl12lts_2023080217internal_statusor22ThrowBadStatusOrAccessENS0_6StatusE(ptr noundef nonnull %agg.tmp.i) #12
          to label %invoke.cont.i unwind label %lpad.i

invoke.cont.i:                                    ; preds = %_ZN4absl12lts_202308026StatusC2ERKS1_.exit.i
  unreachable

lpad.i:                                           ; preds = %_ZN4absl12lts_202308026StatusC2ERKS1_.exit.i
  %4 = landingpad { ptr, i32 }
          cleanup
  call void @_ZN4absl12lts_202308026StatusD2Ev(ptr noundef nonnull align 8 dereferenceable(8) %agg.tmp.i) #13
  br label %lpad.body

invoke.cont:                                      ; preds = %for.body
  call void @llvm.lifetime.end.p0(i64 8, ptr nonnull %agg.tmp.i)
  %call1 = call noundef ptr @_ZNKSt7__cxx1112basic_stringIcSt11char_traitsIcESaIcEE5c_strEv(ptr noundef nonnull align 8 dereferenceable(32) %0) #13
  %call3 = invoke i32 @sd_is_socket_unix(i32 noundef %i.018, i32 noundef 1, i32 noundef 1, ptr noundef %call1, i64 noundef 0)
          to label %invoke.cont2 unwind label %lpad.loopexit

invoke.cont2:                                     ; preds = %invoke.cont
  %tobool.not = icmp eq i32 %call3, 0
  br i1 %tobool.not, label %for.inc, label %if.then

if.then:                                          ; preds = %invoke.cont2
  invoke void @_Z36grpc_tcp_server_set_pre_allocated_fdP15grpc_tcp_serveri(ptr noundef %s, i32 noundef %i.018)
          to label %cleanup unwind label %lpad.loopexit.split-lp

lpad.loopexit:                                    ; preds = %invoke.cont
  %lpad.loopexit6 = landingpad { ptr, i32 }
          cleanup
  br label %lpad.body

lpad.loopexit.split-lp:                           ; preds = %if.then
  %lpad.loopexit.split-lp7 = landingpad { ptr, i32 }
          cleanup
  br label %lpad.body

lpad.body:                                        ; preds = %lpad.loopexit, %lpad.loopexit.split-lp, %lpad.i
  %eh.lpad-body = phi { ptr, i32 } [ %4, %lpad.i ], [ %lpad.loopexit6, %lpad.loopexit ], [ %lpad.loopexit.split-lp7, %lpad.loopexit.split-lp ]
  call void @_ZN4absl12lts_202308028StatusOrINSt7__cxx1112basic_stringIcSt11char_traitsIcESaIcEEEED2Ev(ptr noundef nonnull align 8 dereferenceable(40) %addr_name) #13
  resume { ptr, i32 } %eh.lpad-body

for.inc:                                          ; preds = %invoke.cont2
  %inc = add nsw i32 %i.018, 1
  %cmp = icmp slt i32 %inc, %add
  br i1 %cmp, label %for.body, label %cleanup, !llvm.loop !4

cleanup:                                          ; preds = %for.inc, %entry, %if.then
  %cmp11 = phi i1 [ true, %if.then ], [ false, %entry ], [ false, %for.inc ]
  %5 = load i64, ptr %addr_name, align 8
  %cmp.i.i.i.i5 = icmp eq i64 %5, 0
  br i1 %cmp.i.i.i.i5, label %_ZN4absl12lts_202308026StatusD2Ev.exit.i.i, label %if.else.i.i

_ZN4absl12lts_202308026StatusD2Ev.exit.i.i:       ; preds = %cleanup
  %6 = getelementptr inbounds i8, ptr %addr_name, i64 8
  call void @_ZNSt7__cxx1112basic_stringIcSt11char_traitsIcESaIcEED1Ev(ptr noundef nonnull align 8 dereferenceable(32) %6) #13
  br label %_ZN4absl12lts_202308028StatusOrINSt7__cxx1112basic_stringIcSt11char_traitsIcESaIcEEEED2Ev.exit

if.else.i.i:                                      ; preds = %cleanup
  %and.i.i.i1.i.i = and i64 %5, 1
  %cmp.i.i.i2.i.i = icmp eq i64 %and.i.i.i1.i.i, 0
  br i1 %cmp.i.i.i2.i.i, label %_ZN4absl12lts_202308028StatusOrINSt7__cxx1112basic_stringIcSt11char_traitsIcESaIcEEEED2Ev.exit, label %if.then.i.i3.i.i

if.then.i.i3.i.i:                                 ; preds = %if.else.i.i
  invoke void @_ZN4absl12lts_202308026Status15UnrefNonInlinedEm(i64 noundef %5)
          to label %_ZN4absl12lts_202308028StatusOrINSt7__cxx1112basic_stringIcSt11char_traitsIcESaIcEEEED2Ev.exit unwind label %terminate.lpad.i4.i.i

terminate.lpad.i4.i.i:                            ; preds = %if.then.i.i3.i.i
  %7 = landingpad { ptr, i32 }
          catch ptr null
  %8 = extractvalue { ptr, i32 } %7, 0
  call void @__clang_call_terminate(ptr %8) #14
  unreachable

_ZN4absl12lts_202308028StatusOrINSt7__cxx1112basic_stringIcSt11char_traitsIcESaIcEEEED2Ev.exit: ; preds = %_ZN4absl12lts_202308026StatusD2Ev.exit.i.i, %if.else.i.i, %if.then.i.i3.i.i
  ret i1 %cmp11
}